target datalayout = "e-m:e-p270:32:32-p271:32:32-p272:64:64-i64:64-i128:128-f80:128-n8:16:32:64-S128"
target triple = "x86_64-pc-linux-gnu"

@OnigEncAsciiToLowerCaseTable = external constant [0 x i8], align 1

; Function Attrs: nounwind uwtable
define internal i32 @mbc_case_fold(i32 noundef %0, ptr noundef %1, ptr noundef %2, ptr noundef %3) #0 {
  %5 = alloca i32, align 4
  %6 = alloca i32, align 4
  %7 = alloca ptr, align 8
  %8 = alloca ptr, align 8
  %9 = alloca ptr, align 8
  %10 = alloca ptr, align 8
  %11 = alloca i32, align 4
  %12 = alloca i32, align 4
  %13 = alloca i32, align 4
  store i32 %0, ptr %6, align 4, !tbaa !10
  store ptr %1, ptr %7, align 8, !tbaa !16
  store ptr %2, ptr %8, align 8, !tbaa !4
  store ptr %3, ptr %9, align 8, !tbaa !4
  call void @llvm.lifetime.start.p0(i64 8, ptr %10) #4
  %14 = load ptr, ptr %7, align 8, !tbaa !16
  %15 = load ptr, ptr %14, align 8, !tbaa !4
  store ptr %15, ptr %10, align 8, !tbaa !4
  %16 = load ptr, ptr %10, align 8, !tbaa !4
  %17 = load i8, ptr %16, align 1, !tbaa !9
  %18 = zext i8 %17 to i32
  %19 = icmp slt i32 %18, 128
  br i1 %19, label %20, label %30

20:                                               ; preds = %4
  %21 = load ptr, ptr %10, align 8, !tbaa !4
  %22 = load i8, ptr %21, align 1, !tbaa !9
  %23 = zext i8 %22 to i64
  %24 = getelementptr inbounds nuw [0 x i8], ptr @OnigEncAsciiToLowerCaseTable, i64 0, i64 %23
  %25 = load i8, ptr %24, align 1, !tbaa !9
  %26 = load ptr, ptr %9, align 8, !tbaa !4
  store i8 %25, ptr %26, align 1, !tbaa !9
  %27 = load ptr, ptr %7, align 8, !tbaa !16
  %28 = load ptr, ptr %27, align 8, !tbaa !4
  %29 = getelementptr inbounds nuw i8, ptr %28, i32 1
  store ptr %29, ptr %27, align 8, !tbaa !4
  store i32 1, ptr %5, align 4
  store i32 1, ptr %11, align 4
  br label %54

30:                                               ; preds = %4
  call void @llvm.lifetime.start.p0(i64 4, ptr %12) #4
  call void @llvm.lifetime.start.p0(i64 4, ptr %13) #4
  %31 = load ptr, ptr @OnigEncodingSJIS, align 8, !tbaa !12
  %32 = load ptr, ptr %10, align 8, !tbaa !4
  %33 = call i32 %31(ptr noundef %32)
  store i32 %33, ptr %13, align 4, !tbaa !10
  store i32 0, ptr %12, align 4, !tbaa !10
  br label %34

34:                                               ; preds = %44, %30
  %35 = load i32, ptr %12, align 4, !tbaa !10
  %36 = load i32, ptr %13, align 4, !tbaa !10
  %37 = icmp slt i32 %35, %36
  br i1 %37, label %38, label %47

38:                                               ; preds = %34
  %39 = load ptr, ptr %10, align 8, !tbaa !4
  %40 = getelementptr inbounds nuw i8, ptr %39, i32 1
  store ptr %40, ptr %10, align 8, !tbaa !4
  %41 = load i8, ptr %39, align 1, !tbaa !9
  %42 = load ptr, ptr %9, align 8, !tbaa !4
  %43 = getelementptr inbounds nuw i8, ptr %42, i32 1
  store ptr %43, ptr %9, align 8, !tbaa !4
  store i8 %41, ptr %42, align 1, !tbaa !9
  br label %44

44:                                               ; preds = %38
  %45 = load i32, ptr %12, align 4, !tbaa !10
  %46 = add nsw i32 %45, 1
  store i32 %46, ptr %12, align 4, !tbaa !10
  br label %34, !llvm.loop !18

47:                                               ; preds = %34
  %48 = load i32, ptr %13, align 4, !tbaa !10
  %49 = load ptr, ptr %7, align 8, !tbaa !16
  %50 = load ptr, ptr %49, align 8, !tbaa !4
  %51 = sext i32 %48 to i64
  %52 = getelementptr inbounds i8, ptr %50, i64 %51
  store ptr %52, ptr %49, align 8, !tbaa !4
  %53 = load i32, ptr %13, align 4, !tbaa !10
  store i32 %53, ptr %5, align 4
  store i32 1, ptr %11, align 4
  call void @llvm.lifetime.end.p0(i64 4, ptr %13) #4
  call void @llvm.lifetime.end.p0(i64 4, ptr %12) #4
  br label %54

54:                                               ; preds = %47, %20
  call void @llvm.lifetime.end.p0(i64 8, ptr %10) #4
  %55 = load i32, ptr %5, align 4
  ret i32 %55
}