; Function Attrs: nounwind uwtable
define internal i32 @mbc_case_fold(i32 %0, ptr noundef captures(none) %1, ptr readnone captures(none) %2, ptr noundef writeonly captures(none) %3) #2 {
  %5 = load ptr, ptr %1, align 8, !tbaa !15
  %6 = load i8, ptr %5, align 1, !tbaa !4
  %7 = icmp sgt i8 %6, -1
  br i1 %7, label %8, label %14

8:                                                ; preds = %4
  %9 = zext nneg i8 %6 to i64
  %10 = getelementptr inbounds nuw [0 x i8], ptr @OnigEncAsciiToLowerCaseTable, i64 0, i64 %9
  %11 = load i8, ptr %10, align 1, !tbaa !4
  store i8 %11, ptr %3, align 1, !tbaa !4
  %12 = load ptr, ptr %1, align 8, !tbaa !15
  %13 = getelementptr inbounds nuw i8, ptr %12, i64 1
  br label %25

14:                                               ; preds = %4
  %15 = load ptr, ptr @OnigEncodingSJIS, align 8, !tbaa !9
  %16 = tail call i32 %15(ptr noundef nonnull %5) #8
  %17 = icmp sgt i32 %16, 0
  br i1 %17, label %.lr.ph, label %._crit_edge

.lr.ph:                                           ; preds = %14, %.lr.ph
  %.01420 = phi i32 [ %21, %.lr.ph ], [ 0, %14 ]
  %.01519 = phi ptr [ %18, %.lr.ph ], [ %5, %14 ]
  %.01618 = phi ptr [ %20, %.lr.ph ], [ %3, %14 ]
  %18 = getelementptr inbounds nuw i8, ptr %.01519, i64 1
  %19 = load i8, ptr %.01519, align 1, !tbaa !4
  %20 = getelementptr inbounds nuw i8, ptr %.01618, i64 1
  store i8 %19, ptr %.01618, align 1, !tbaa !4
  %21 = add nuw nsw i32 %.01420, 1
  %exitcond.not = icmp eq i32 %21, %16
  br i1 %exitcond.not, label %._crit_edge, label %.lr.ph, !llvm.loop !16

._crit_edge:                                      ; preds = %.lr.ph, %14
  %22 = load ptr, ptr %1, align 8, !tbaa !15
  %23 = sext i32 %16 to i64
  %24 = getelementptr inbounds i8, ptr %22, i64 %23
  br label %25

25:                                               ; preds = %._crit_edge, %8
  %storemerge = phi ptr [ %24, %._crit_edge ], [ %13, %8 ]
  %.0 = phi i32 [ %16, %._crit_edge ], [ 1, %8 ]
  store ptr %storemerge, ptr %1, align 8, !tbaa !15
  ret i32 %.0
}